target datalayout = "e-m:e-p270:32:32-p271:32:32-p272:64:64-i64:64-i128:128-f80:128-n8:16:32:64-S128"
target triple = "x86_64-pc-linux-gnu"

@.str.239 = private unnamed_addr constant [13 x i8] c"acf.msg_type\00", align 1
@proto_register_1722_acf.ett = internal global [2 x ptr] [ptr @ett_1722_acf, ptr @ett_1722_acf_header], align 16
@.str.246 = private unnamed_addr constant [12 x i8] c"ACF Message\00", align 1
@.str.247 = private unnamed_addr constant [4 x i8] c"ACF\00", align 1
@.str.248 = private unnamed_addr constant [4 x i8] c"acf\00", align 1
@proto_1722_acf = internal global i32 0, align 4
@avb1722_acf_handle = internal global ptr null, align 8
@.str.249 = private unnamed_addr constant [35 x i8] c"IEEE1722 AVTP Control Message Type\00", align 1
@avb1722_acf_dissector_table = internal global ptr null, align 8

; Function Attrs: null_pointer_is_valid sspstrong uwtable
define hidden void @proto_register_1722_acf() #0 {
  %1 = alloca ptr, align 8
  call void @llvm.lifetime.start.p0(i64 8, ptr %1) #9
  %2 = call i32 @proto_register_protocol(ptr noundef @.str.246, ptr noundef @.str.247, ptr noundef @.str.248)
  store i32 %2, ptr @proto_1722_acf, align 4
  %3 = load i32, ptr @proto_1722_acf, align 4
  %4 = call ptr @register_dissector(ptr noundef @.str.248, ptr noundef @dissect_1722_acf, i32 noundef %3)
  store ptr %4, ptr @avb1722_acf_handle, align 8
  %5 = load i32, ptr @proto_1722_acf, align 4
  call void @proto_register_field_array(i32 noundef %5, ptr noundef @proto_register_1722_acf.hf, i32 noundef 2)
  call void @proto_register_subtree_array(ptr noundef @proto_register_1722_acf.ett, i32 noundef 2)
  %6 = load i32, ptr @proto_1722_acf, align 4
  %7 = call ptr @register_dissector_table(ptr noundef @.str.239, ptr noundef @.str.249, i32 noundef %6, i32 noundef 4, i32 noundef 2)
  store ptr %7, ptr @avb1722_acf_dissector_table, align 8
  %8 = load i32, ptr @proto_1722_acf, align 4
  %9 = call ptr @expert_register_protocol(i32 noundef %8)
  store ptr %9, ptr %1, align 8
  %10 = load ptr, ptr %1, align 8
  call void @expert_register_field_array(ptr noundef %10, ptr noundef @proto_register_1722_acf.ei, i32 noundef 2)
  call void @llvm.lifetime.end.p0(i64 8, ptr %1) #9
  ret void
}