; Function Attrs: null_pointer_is_valid sspstrong uwtable
define hidden void @proto_register_1722_acf() local_unnamed_addr #0 {
  %1 = tail call i32 @proto_register_protocol(ptr noundef nonnull @.str.246, ptr noundef nonnull @.str.247, ptr noundef nonnull @.str.248)
  store i32 %1, ptr @proto_1722_acf, align 4
  %2 = tail call ptr @register_dissector(ptr noundef nonnull @.str.248, ptr noundef nonnull @dissect_1722_acf, i32 noundef %1)
  store ptr %2, ptr @avb1722_acf_handle, align 8
  %3 = load i32, ptr @proto_1722_acf, align 4
  tail call void @proto_register_field_array(i32 noundef %3, ptr noundef nonnull @proto_register_1722_acf.hf, i32 noundef 2)
  tail call void @proto_register_subtree_array(ptr noundef nonnull @proto_register_1722_acf.ett, i32 noundef 2)
  %4 = load i32, ptr @proto_1722_acf, align 4
  %5 = tail call ptr @register_dissector_table(ptr noundef nonnull @.str.239, ptr noundef nonnull @.str.249, i32 noundef %4, i32 noundef 4, i32 noundef 2)
  store ptr %5, ptr @avb1722_acf_dissector_table, align 8
  %6 = load i32, ptr @proto_1722_acf, align 4
  %7 = tail call ptr @expert_register_protocol(i32 noundef %6)
  tail call void @expert_register_field_array(ptr noundef %7, ptr noundef nonnull @proto_register_1722_acf.ei, i32 noundef 2)
  ret void
}